(dp0
S'train_x'
p1
(lp2
(lp3
I0
aI0
aI0
aI0
aI0
aI0
aI0
aI0
aI0
aI1
aI0
aI0
aI0
aI1
aI0
aI0
aI0
aI0
aI0
aI0
aI1
aI1
aI0
aI0
aI0
aI0
aI1
aI0
aa(lp4
I0
aI0
aI0
aI1
aI0
aI0
aI0
aI0
aI0
aI0
aI0
aI0
aI0
aI0
aI0
aI0
aI0
aI0
aI0
aI0
aI0
aI0
aI1
aI0
aI0
aI0
aI0
aI0
aa(lp5
I0
aI0
aI0
aI0
aI0
aI0
aI0
aI0
aI0
aI0
aI0
aI0
aI0
aI0
aI0
aI0
aI0
aI0
aI0
aI0
aI0
aI0
aI0
aI1
aI0
aI0
aI0
aI0
aa(lp6
I0
aI0
aI0
aI0
aI1
aI0
aI0
aI0
aI0
aI0
aI0
aI0
aI0
aI0
aI0
aI1
aI0
aI0
aI0
aI1
aI0
aI0
aI0
aI0
aI0
aI0
aI0
aI0
aa(lp7
I0
aI0
aI0
aI0
aI0
aI1
aI0
aI1
aI0
aI0
aI1
aI0
aI0
aI0
aI0
aI0
aI0
aI0
aI0
aI0
aI0
aI0
aI0
aI0
aI0
aI1
aI1
aI0
aa(lp8
I0
aI0
aI0
aI0
aI0
aI0
aI0
aI0
aI0
aI0
aI0
aI0
aI0
aI0
aI0
aI0
aI0
aI1
aI0
aI0
aI0
aI0
aI0
aI0
aI0
aI0
aI0
aI0
aa(lp9
I0
aI1
aI0
aI0
aI0
aI0
aI1
aI0
aI0
aI0
aI0
aI0
aI1
aI0
aI0
aI0
aI0
aI0
aI0
aI0
aI0
aI0
aI0
aI0
aI0
aI0
aI0
aI1
aa(lp10
I0
aI1
aI0
aI0
aI0
aI0
aI0
aI0
aI1
aI0
aI0
aI0
aI0
aI0
aI0
aI0
aI1
aI0
aI0
aI0
aI0
aI0
aI0
aI0
aI1
aI0
aI1
aI0
aa(lp11
I0
aI0
aI1
aI0
aI0
aI0
aI0
aI0
aI0
aI0
aI0
aI0
aI0
aI0
aI0
aI0
aI0
aI0
aI0
aI0
aI0
aI0
aI0
aI0
aI0
aI0
aI0
aI0
aa(lp12
I1
aI0
aI0
aI0
aI0
aI0
aI1
aI0
aI0
aI0
aI0
aI0
aI0
aI0
aI1
aI0
aI0
aI0
aI0
aI0
aI0
aI0
aI0
aI0
aI1
aI0
aI1
aI0
aa(lp13
I0
aI0
aI0
aI0
aI0
aI0
aI0
aI0
aI0
aI0
aI0
aI0
aI0
aI0
aI0
aI0
aI0
aI0
aI1
aI0
aI0
aI0
aI0
aI0
aI0
aI0
aI0
aI0
aa(lp14
I0
aI0
aI0
aI0
aI0
aI0
aI0
aI0
aI0
aI0
aI0
aI1
aI0
aI0
aI0
aI0
aI0
aI0
aI0
aI0
aI0
aI0
aI0
aI0
aI0
aI0
aI0
aI0
aasS'train_y'
p15
(lp16
(lp17
I0
aI1
aI0
aI0
aa(lp18
I1
aI0
aI0
aI0
aa(lp19
I0
aI0
aI0
aI1
aa(lp20
I1
aI0
aI0
aI0
aa(lp21
I0
aI1
aI0
aI0
aa(lp22
I0
aI0
aI0
aI1
aa(lp23
I0
aI0
aI1
aI0
aa(lp24
I0
aI0
aI1
aI0
aa(lp25
I1
aI0
aI0
aI0
aa(lp26
I0
aI1
aI0
aI0
aa(lp27
I0
aI0
aI0
aI1
aa(lp28
I0
aI0
aI0
aI1
aasS'classes'
p29
(lp30
Venvironment
p31
aVgoals
p32
aVtask
p33
aVtechnology
p34
asS'words'
p35
(lp36
Vaccompl
p37
aVcomplet
p38
aVcubic
p39
aVdesk
p40
aVflo
p41
aVgoal
p42
aVi
p43
aVimport
p44
aVin
p45
aVinclud
p46
aVis
p47
aVmobl
p48
aVmust
p49
aVmy
p50
aVnee
p51
aVop
p52
aVord
p53
aVpap
p54
aVpc
p55
aVplan
p56
aVprim
p57
aVrespons
p58
aVstand
p59
aVtablet
p60
aVto
p61
aVvery
p62
aVx
p63
aVy
p64
as.