(dp0
S'train_x'
p1
(lp2
(lp3
I0
aI0
aI0
aI0
aI0
aI0
aI1
aI0
aI1
aI0
aI0
aI0
aI0
aI0
aI0
aI0
aI0
aI0
aI0
aI1
aI0
aI0
aI0
aI1
aa(lp4
I0
aI1
aI1
aI0
aI0
aI0
aI0
aI0
aI0
aI0
aI0
aI0
aI1
aI0
aI0
aI0
aI1
aI0
aI0
aI0
aI0
aI0
aI1
aI0
aa(lp5
I0
aI0
aI0
aI0
aI0
aI0
aI0
aI0
aI0
aI0
aI0
aI0
aI0
aI0
aI0
aI0
aI0
aI0
aI1
aI0
aI0
aI0
aI0
aI0
aa(lp6
I0
aI0
aI0
aI0
aI1
aI0
aI0
aI0
aI0
aI0
aI0
aI0
aI0
aI0
aI0
aI0
aI0
aI1
aI0
aI0
aI0
aI0
aI0
aI0
aa(lp7
I0
aI0
aI0
aI0
aI0
aI0
aI0
aI0
aI0
aI0
aI0
aI1
aI0
aI0
aI0
aI0
aI0
aI0
aI0
aI0
aI0
aI0
aI0
aI0
aa(lp8
I0
aI0
aI0
aI0
aI0
aI0
aI0
aI1
aI0
aI0
aI0
aI0
aI0
aI1
aI0
aI1
aI0
aI0
aI0
aI0
aI0
aI0
aI0
aI0
aa(lp9
I0
aI0
aI0
aI0
aI0
aI0
aI0
aI0
aI0
aI0
aI0
aI0
aI0
aI0
aI0
aI0
aI0
aI0
aI0
aI0
aI0
aI1
aI0
aI0
aa(lp10
I1
aI1
aI0
aI0
aI0
aI0
aI0
aI0
aI0
aI1
aI1
aI0
aI1
aI0
aI0
aI0
aI1
aI0
aI0
aI0
aI1
aI0
aI0
aI0
aa(lp11
I0
aI0
aI0
aI0
aI0
aI1
aI0
aI0
aI0
aI0
aI0
aI0
aI0
aI0
aI0
aI0
aI0
aI0
aI0
aI0
aI0
aI0
aI0
aI0
aa(lp12
I0
aI0
aI0
aI1
aI0
aI0
aI0
aI0
aI0
aI0
aI0
aI0
aI0
aI0
aI0
aI0
aI0
aI0
aI0
aI0
aI0
aI0
aI0
aI0
aa(lp13
I0
aI0
aI0
aI0
aI0
aI0
aI0
aI0
aI0
aI0
aI0
aI0
aI0
aI0
aI1
aI0
aI0
aI0
aI0
aI0
aI0
aI0
aI0
aI0
aasS'train_y'
p14
(lp15
(lp16
I0
aI1
aI0
aI0
aa(lp17
I0
aI1
aI0
aI0
aa(lp18
I0
aI0
aI1
aI0
aa(lp19
I1
aI0
aI0
aI0
aa(lp20
I0
aI0
aI1
aI0
aa(lp21
I1
aI0
aI0
aI0
aa(lp22
I0
aI0
aI0
aI1
aa(lp23
I0
aI1
aI0
aI0
aa(lp24
I0
aI0
aI1
aI0
aa(lp25
I1
aI0
aI0
aI0
aa(lp26
I0
aI0
aI1
aI0
aasS'classes'
p27
(lp28
Venvironment
p29
aVrental
p30
aVtechnology
p31
aVtoday
p32
asS'words'
p33
(lp34
V'd
p35
aVa
p36
aVcan
p37
aVcubic
p38
aVdesk
p39
aVdesktop
p40
aVdoe
p41
aVflo
p42
aVhow
p43
aVi
p44
aVlik
p45
aVmobl
p46
aVmop
p47
aVop
p48
aVpap
p49
aVplan
p50
aVrent
p51
aVstand
p52
aVtablet
p53
aVthi
p54
aVto
p55
aVtoday
p56
aVwe
p57
aVwork
p58
as.